; Function Attrs: mustprogress uwtable
define dso_local void @_ZN7FactMgr22update_fact_for_returnEPK15StatementReturnRSt6vectorIPK4FactSaIS6_EE(ptr noundef %0, ptr noundef nonnull align 8 dereferenceable(24) %1) local_unnamed_addr #4 align 2 personality ptr @__gxx_personality_v0 {
  %3 = alloca %"class.std::vector.0", align 8
  %4 = load ptr, ptr getelementptr inbounds nuw (i8, ptr @_ZN7FactMgr10meta_factsE, i64 8), align 8, !tbaa !11
  %5 = load ptr, ptr @_ZN7FactMgr10meta_factsE, align 8, !tbaa !4
  %.not = icmp eq ptr %4, %5
  br i1 %.not, label %._crit_edge27, label %.lr.ph26

.lr.ph26:                                         ; preds = %2
  %6 = getelementptr inbounds nuw i8, ptr %0, i64 32
  %7 = getelementptr inbounds nuw i8, ptr %0, i64 16
  %8 = getelementptr inbounds nuw i8, ptr %3, i64 8
  %9 = getelementptr inbounds nuw i8, ptr %3, i64 16
  br label %10

10:                                               ; preds = %.lr.ph26, %_ZNSt6vectorIPK4FactSaIS2_EED2Ev.exit18
  %11 = phi ptr [ %5, %.lr.ph26 ], [ %53, %_ZNSt6vectorIPK4FactSaIS2_EED2Ev.exit18 ]
  %.024 = phi i64 [ 0, %.lr.ph26 ], [ %51, %_ZNSt6vectorIPK4FactSaIS2_EED2Ev.exit18 ]
  call void @llvm.lifetime.start.p0(i64 24, ptr nonnull %3) #22
  %12 = getelementptr inbounds nuw ptr, ptr %11, i64 %.024
  %13 = load ptr, ptr %12, align 8, !tbaa !12
  %14 = load ptr, ptr %6, align 8, !tbaa !181
  %15 = load ptr, ptr %7, align 8, !tbaa !141
  %16 = load ptr, ptr %13, align 8, !tbaa !36
  %17 = getelementptr inbounds nuw i8, ptr %16, i64 136
  %18 = load ptr, ptr %17, align 8
  call void %18(ptr dead_on_unwind nonnull writable sret(%"class.std::vector.0") align 8 %3, ptr noundef nonnull align 8 dereferenceable(12) %13, ptr noundef nonnull align 8 dereferenceable(24) %1, ptr noundef %14, ptr noundef %15)
  %19 = load ptr, ptr %8, align 8, !tbaa !14
  %20 = load ptr, ptr %3, align 8, !tbaa !16
  %21 = ptrtoint ptr %20 to i64
  %.not28 = icmp eq ptr %19, %20
  br i1 %.not28, label %._crit_edge, label %.lr.ph

.lr.ph:                                           ; preds = %10, %38
  %22 = phi ptr [ %41, %38 ], [ %20, %10 ]
  %.01622 = phi i64 [ %39, %38 ], [ 0, %10 ]
  %23 = getelementptr inbounds nuw ptr, ptr %22, i64 %.01622
  %24 = load ptr, ptr %23, align 8, !tbaa !12
  %25 = invoke noundef zeroext i1 @_Z10merge_factRSt6vectorIPK4FactSaIS2_EES2_(ptr noundef nonnull align 8 dereferenceable(24) %1, ptr noundef %24)
          to label %26 unwind label %30

26:                                               ; preds = %.lr.ph
  br i1 %25, label %27, label %38

27:                                               ; preds = %26
  %28 = load ptr, ptr %7, align 8, !tbaa !141
  %29 = getelementptr inbounds nuw i8, ptr %28, i64 264
  store i8 1, ptr %29, align 8, !tbaa !180
  br label %38

30:                                               ; preds = %.lr.ph
  %31 = landingpad { ptr, i32 }
          cleanup
  %32 = load ptr, ptr %3, align 8, !tbaa !16
  %.not.i.i.i = icmp eq ptr %32, null
  br i1 %.not.i.i.i, label %_ZNSt6vectorIPK4FactSaIS2_EED2Ev.exit, label %33

33:                                               ; preds = %30
  %34 = load ptr, ptr %9, align 8, !tbaa !17
  %35 = ptrtoint ptr %34 to i64
  %36 = ptrtoint ptr %32 to i64
  %37 = sub i64 %35, %36
  call void @_ZdlPvm(ptr noundef nonnull %32, i64 noundef %37) #21
  br label %_ZNSt6vectorIPK4FactSaIS2_EED2Ev.exit

_ZNSt6vectorIPK4FactSaIS2_EED2Ev.exit:            ; preds = %30, %33
  call void @llvm.lifetime.end.p0(i64 24, ptr nonnull %3) #22
  resume { ptr, i32 } %31

38:                                               ; preds = %26, %27
  %39 = add nuw i64 %.01622, 1
  %40 = load ptr, ptr %8, align 8, !tbaa !14
  %41 = load ptr, ptr %3, align 8, !tbaa !16
  %42 = ptrtoint ptr %40 to i64
  %43 = ptrtoint ptr %41 to i64
  %44 = sub i64 %42, %43
  %45 = ashr exact i64 %44, 3
  %46 = icmp ult i64 %39, %45
  br i1 %46, label %.lr.ph, label %._crit_edge, !llvm.loop !184

._crit_edge:                                      ; preds = %38, %10
  %.lcssa20 = phi ptr [ %20, %10 ], [ %41, %38 ]
  %.lcssa = phi i64 [ %21, %10 ], [ %43, %38 ]
  %.not.i.i.i17 = icmp eq ptr %.lcssa20, null
  br i1 %.not.i.i.i17, label %_ZNSt6vectorIPK4FactSaIS2_EED2Ev.exit18, label %47

47:                                               ; preds = %._crit_edge
  %48 = load ptr, ptr %9, align 8, !tbaa !17
  %49 = ptrtoint ptr %48 to i64
  %50 = sub i64 %49, %.lcssa
  call void @_ZdlPvm(ptr noundef nonnull %.lcssa20, i64 noundef %50) #21
  br label %_ZNSt6vectorIPK4FactSaIS2_EED2Ev.exit18

_ZNSt6vectorIPK4FactSaIS2_EED2Ev.exit18:          ; preds = %._crit_edge, %47
  call void @llvm.lifetime.end.p0(i64 24, ptr nonnull %3) #22
  %51 = add nuw i64 %.024, 1
  %52 = load ptr, ptr getelementptr inbounds nuw (i8, ptr @_ZN7FactMgr10meta_factsE, i64 8), align 8, !tbaa !11
  %53 = load ptr, ptr @_ZN7FactMgr10meta_factsE, align 8, !tbaa !4
  %54 = ptrtoint ptr %52 to i64
  %55 = ptrtoint ptr %53 to i64
  %56 = sub i64 %54, %55
  %57 = ashr exact i64 %56, 3
  %58 = icmp ult i64 %51, %57
  br i1 %58, label %10, label %._crit_edge27, !llvm.loop !185

._crit_edge27:                                    ; preds = %_ZNSt6vectorIPK4FactSaIS2_EED2Ev.exit18, %2
  %59 = getelementptr inbounds nuw i8, ptr %0, i64 16
  %60 = load ptr, ptr %59, align 8, !tbaa !141
  %61 = call noundef ptr @_Z21get_fact_mgr_for_funcPK8Function(ptr noundef %60)
  call void @_ZN7FactMgr12set_fact_outEPK9StatementRKSt6vectorIPK4FactSaIS6_EE(ptr noundef nonnull align 8 dereferenceable(392) %61, ptr noundef %0, ptr noundef nonnull align 8 dereferenceable(24) %1)
  ret void
}